target datalayout = "e-m:e-p270:32:32-p271:32:32-p272:64:64-i64:64-i128:128-f80:128-n8:16:32:64-S128"
target triple = "x86_64-pc-linux-gnu"

%struct.TupleTableSlotOps = type { i64, ptr, ptr, ptr, ptr, ptr, ptr, ptr, ptr, ptr, ptr, ptr, ptr }
%struct.Node = type { i32 }
%struct.List = type { i32, i32, i32, ptr, [0 x %union.ListCell] }
%union.ListCell = type { ptr }
%struct.PlanState = type { i32, ptr, ptr, ptr, ptr, ptr, ptr, ptr, ptr, ptr, ptr, ptr, ptr, ptr, ptr, ptr, ptr, ptr, i8, ptr, ptr, ptr, ptr, ptr, i8, i8, i8, i8, i8, i8, i8, i8 }
%struct.Plan = type { i32, i32, double, double, double, i32, i8, i8, i8, i32, ptr, ptr, ptr, ptr, ptr, ptr, ptr }
%struct.TupleDescData = type { i32, i32, i32, i32, ptr, [0 x %struct.CompactAttribute] }
%struct.CompactAttribute = type { i32, i16, i8, i8, i8, i8, i8, i8, i8 }
%struct.TargetEntry = type { %struct.Expr, ptr, i16, ptr, i32, i32, i16, i8 }
%struct.Expr = type { i32 }
%struct.Var = type { %struct.Expr, i32, i16, i32, i32, i32, ptr, i32, i32, i32, i16, i32 }
%struct.FormData_pg_attribute = type { i32, %struct.nameData, i32, i16, i16, i32, i16, i8, i8, i8, i8, i8, i8, i8, i8, i8, i8, i8, i16, i32 }
%struct.nameData = type { [64 x i8] }

@TTSOpsVirtual = external constant %struct.TupleTableSlotOps, align 8

; Function Attrs: inlinehint nounwind uwtable
define internal ptr @lnext(ptr noundef %0, ptr noundef %1) #3 {
  %3 = alloca ptr, align 8
  %4 = alloca ptr, align 8
  %5 = alloca ptr, align 8
  store ptr %0, ptr %4, align 8
  store ptr %1, ptr %5, align 8
  %6 = load ptr, ptr %5, align 8
  %7 = getelementptr inbounds nuw %union.ListCell, ptr %6, i32 1
  store ptr %7, ptr %5, align 8
  %8 = load ptr, ptr %5, align 8
  %9 = load ptr, ptr %4, align 8
  %10 = getelementptr inbounds nuw %struct.List, ptr %9, i32 0, i32 3
  %11 = load ptr, ptr %10, align 8
  %12 = load ptr, ptr %4, align 8
  %13 = getelementptr inbounds nuw %struct.List, ptr %12, i32 0, i32 1
  %14 = load i32, ptr %13, align 4
  %15 = sext i32 %14 to i64
  %16 = getelementptr inbounds %union.ListCell, ptr %11, i64 %15
  %17 = icmp ult ptr %8, %16
  br i1 %17, label %18, label %20

18:                                               ; preds = %2
  %19 = load ptr, ptr %5, align 8
  store ptr %19, ptr %3, align 8
  br label %21

20:                                               ; preds = %2
  store ptr null, ptr %3, align 8
  br label %21

21:                                               ; preds = %20, %18
  %22 = load ptr, ptr %3, align 8
  ret ptr %22
}

; Function Attrs: inlinehint nounwind uwtable
define internal ptr @TupleDescAttr(ptr noundef %0, i32 noundef %1) #3 {
  %3 = alloca ptr, align 8
  %4 = alloca i32, align 4
  %5 = alloca ptr, align 8
  store ptr %0, ptr %3, align 8
  store i32 %1, ptr %4, align 4
  call void @llvm.lifetime.start.p0(i64 8, ptr %5) #6
  %6 = load ptr, ptr %3, align 8
  %7 = load ptr, ptr %3, align 8
  %8 = getelementptr inbounds nuw %struct.TupleDescData, ptr %7, i32 0, i32 0
  %9 = load i32, ptr %8, align 8
  %10 = sext i32 %9 to i64
  %11 = mul i64 %10, 16
  %12 = add i64 24, %11
  %13 = getelementptr inbounds nuw i8, ptr %6, i64 %12
  store ptr %13, ptr %5, align 8
  %14 = load ptr, ptr %5, align 8
  %15 = load i32, ptr %4, align 4
  %16 = sext i32 %15 to i64
  %17 = getelementptr inbounds %struct.FormData_pg_attribute, ptr %14, i64 %16
  call void @llvm.lifetime.end.p0(i64 8, ptr %5) #6
  ret ptr %17
}

; Function Attrs: inlinehint nounwind uwtable
define internal ptr @list_head(ptr noundef %0) #3 {
  %2 = alloca ptr, align 8
  store ptr %0, ptr %2, align 8
  %3 = load ptr, ptr %2, align 8
  %4 = icmp ne ptr %3, null
  br i1 %4, label %5, label %10

5:                                                ; preds = %1
  %6 = load ptr, ptr %2, align 8
  %7 = getelementptr inbounds nuw %struct.List, ptr %6, i32 0, i32 3
  %8 = load ptr, ptr %7, align 8
  %9 = getelementptr inbounds %union.ListCell, ptr %8, i64 0
  br label %11

10:                                               ; preds = %1
  br label %11

11:                                               ; preds = %10, %5
  %12 = phi ptr [ %9, %5 ], [ null, %10 ]
  ret ptr %12
}

; Function Attrs: nounwind uwtable
define dso_local void @ExecAssignProjectionInfo(ptr noundef %0, ptr noundef %1) #0 {
  %3 = alloca ptr, align 8
  %4 = alloca ptr, align 8
  store ptr %0, ptr %3, align 8
  store ptr %1, ptr %4, align 8
  %5 = load ptr, ptr %3, align 8
  %6 = getelementptr inbounds nuw %struct.PlanState, ptr %5, i32 0, i32 1
  %7 = load ptr, ptr %6, align 8
  %8 = getelementptr inbounds nuw %struct.Plan, ptr %7, i32 0, i32 10
  %9 = load ptr, ptr %8, align 8
  %10 = load ptr, ptr %3, align 8
  %11 = getelementptr inbounds nuw %struct.PlanState, ptr %10, i32 0, i32 16
  %12 = load ptr, ptr %11, align 8
  %13 = load ptr, ptr %3, align 8
  %14 = getelementptr inbounds nuw %struct.PlanState, ptr %13, i32 0, i32 15
  %15 = load ptr, ptr %14, align 8
  %16 = load ptr, ptr %3, align 8
  %17 = load ptr, ptr %4, align 8
  %18 = call ptr @ExecBuildProjectionInfo(ptr noundef %9, ptr noundef %12, ptr noundef %15, ptr noundef %16, ptr noundef %17)
  %19 = load ptr, ptr %3, align 8
  %20 = getelementptr inbounds nuw %struct.PlanState, ptr %19, i32 0, i32 17
  store ptr %18, ptr %20, align 8
  ret void
}

; Function Attrs: nounwind uwtable
define internal zeroext i1 @tlist_matches_tupdesc(ptr noundef %0, ptr noundef %1, i32 noundef %2, ptr noundef %3) #0 {
  %5 = alloca i1, align 1
  %6 = alloca ptr, align 8
  %7 = alloca ptr, align 8
  %8 = alloca i32, align 4
  %9 = alloca ptr, align 8
  %10 = alloca i32, align 4
  %11 = alloca i32, align 4
  %12 = alloca ptr, align 8
  %13 = alloca ptr, align 8
  %14 = alloca ptr, align 8
  %15 = alloca i32, align 4
  store ptr %0, ptr %6, align 8
  store ptr %1, ptr %7, align 8
  store i32 %2, ptr %8, align 4
  store ptr %3, ptr %9, align 8
  call void @llvm.lifetime.start.p0(i64 4, ptr %10) #6
  %16 = load ptr, ptr %9, align 8
  %17 = getelementptr inbounds nuw %struct.TupleDescData, ptr %16, i32 0, i32 0
  %18 = load i32, ptr %17, align 8
  store i32 %18, ptr %10, align 4
  call void @llvm.lifetime.start.p0(i64 4, ptr %11) #6
  call void @llvm.lifetime.start.p0(i64 8, ptr %12) #6
  %19 = load ptr, ptr %7, align 8
  %20 = call ptr @list_head(ptr noundef %19)
  store ptr %20, ptr %12, align 8
  store i32 1, ptr %11, align 4
  br label %21

21:                                               ; preds = %95, %4
  %22 = load i32, ptr %11, align 4
  %23 = load i32, ptr %10, align 4
  %24 = icmp sle i32 %22, %23
  br i1 %24, label %25, label %98

25:                                               ; preds = %21
  call void @llvm.lifetime.start.p0(i64 8, ptr %13) #6
  %26 = load ptr, ptr %9, align 8
  %27 = load i32, ptr %11, align 4
  %28 = sub i32 %27, 1
  %29 = call ptr @TupleDescAttr(ptr noundef %26, i32 noundef %28)
  store ptr %29, ptr %13, align 8
  call void @llvm.lifetime.start.p0(i64 8, ptr %14) #6
  %30 = load ptr, ptr %12, align 8
  %31 = icmp eq ptr %30, null
  br i1 %31, label %32, label %33

32:                                               ; preds = %25
  store i1 false, ptr %5, align 1
  store i32 1, ptr %15, align 4
  br label %92

33:                                               ; preds = %25
  %34 = load ptr, ptr %12, align 8
  %35 = load ptr, ptr %34, align 8
  %36 = getelementptr inbounds nuw %struct.TargetEntry, ptr %35, i32 0, i32 1
  %37 = load ptr, ptr %36, align 8
  store ptr %37, ptr %14, align 8
  %38 = load ptr, ptr %14, align 8
  %39 = icmp ne ptr %38, null
  br i1 %39, label %40, label %45

40:                                               ; preds = %33
  %41 = load ptr, ptr %14, align 8
  %42 = getelementptr inbounds nuw %struct.Node, ptr %41, i32 0, i32 0
  %43 = load i32, ptr %42, align 4
  %44 = icmp eq i32 %43, 6
  br i1 %44, label %46, label %45

45:                                               ; preds = %40, %33
  store i1 false, ptr %5, align 1
  store i32 1, ptr %15, align 4
  br label %92

46:                                               ; preds = %40
  %47 = load ptr, ptr %14, align 8
  %48 = getelementptr inbounds nuw %struct.Var, ptr %47, i32 0, i32 2
  %49 = load i16, ptr %48, align 8
  %50 = sext i16 %49 to i32
  %51 = load i32, ptr %11, align 4
  %52 = icmp ne i32 %50, %51
  br i1 %52, label %53, label %54

53:                                               ; preds = %46
  store i1 false, ptr %5, align 1
  store i32 1, ptr %15, align 4
  br label %92

54:                                               ; preds = %46
  %55 = load ptr, ptr %13, align 8
  %56 = getelementptr inbounds nuw %struct.FormData_pg_attribute, ptr %55, i32 0, i32 16
  %57 = load i8, ptr %56, align 1, !range !6, !noundef !7
  %58 = trunc i8 %57 to i1
  br i1 %58, label %59, label %60

59:                                               ; preds = %54
  store i1 false, ptr %5, align 1
  store i32 1, ptr %15, align 4
  br label %92

60:                                               ; preds = %54
  %61 = load ptr, ptr %13, align 8
  %62 = getelementptr inbounds nuw %struct.FormData_pg_attribute, ptr %61, i32 0, i32 13
  %63 = load i8, ptr %62, align 4, !range !6, !noundef !7
  %64 = trunc i8 %63 to i1
  br i1 %64, label %65, label %66

65:                                               ; preds = %60
  store i1 false, ptr %5, align 1
  store i32 1, ptr %15, align 4
  br label %92

66:                                               ; preds = %60
  %67 = load ptr, ptr %14, align 8
  %68 = getelementptr inbounds nuw %struct.Var, ptr %67, i32 0, i32 3
  %69 = load i32, ptr %68, align 4
  %70 = load ptr, ptr %13, align 8
  %71 = getelementptr inbounds nuw %struct.FormData_pg_attribute, ptr %70, i32 0, i32 2
  %72 = load i32, ptr %71, align 4
  %73 = icmp ne i32 %69, %72
  br i1 %73, label %87, label %74

74:                                               ; preds = %66
  %75 = load ptr, ptr %14, align 8
  %76 = getelementptr inbounds nuw %struct.Var, ptr %75, i32 0, i32 4
  %77 = load i32, ptr %76, align 8
  %78 = load ptr, ptr %13, align 8
  %79 = getelementptr inbounds nuw %struct.FormData_pg_attribute, ptr %78, i32 0, i32 5
  %80 = load i32, ptr %79, align 4
  %81 = icmp ne i32 %77, %80
  br i1 %81, label %82, label %88

82:                                               ; preds = %74
  %83 = load ptr, ptr %14, align 8
  %84 = getelementptr inbounds nuw %struct.Var, ptr %83, i32 0, i32 4
  %85 = load i32, ptr %84, align 8
  %86 = icmp ne i32 %85, -1
  br i1 %86, label %87, label %88

87:                                               ; preds = %82, %66
  store i1 false, ptr %5, align 1
  store i32 1, ptr %15, align 4
  br label %92

88:                                               ; preds = %82, %74
  %89 = load ptr, ptr %7, align 8
  %90 = load ptr, ptr %12, align 8
  %91 = call ptr @lnext(ptr noundef %89, ptr noundef %90)
  store ptr %91, ptr %12, align 8
  store i32 0, ptr %15, align 4
  br label %92

92:                                               ; preds = %88, %87, %65, %59, %53, %45, %32
  call void @llvm.lifetime.end.p0(i64 8, ptr %14) #6
  call void @llvm.lifetime.end.p0(i64 8, ptr %13) #6
  %93 = load i32, ptr %15, align 4
  switch i32 %93, label %103 [
    i32 0, label %94
  ]

94:                                               ; preds = %92
  br label %95

95:                                               ; preds = %94
  %96 = load i32, ptr %11, align 4
  %97 = add i32 %96, 1
  store i32 %97, ptr %11, align 4
  br label %21, !llvm.loop !11

98:                                               ; preds = %21
  %99 = load ptr, ptr %12, align 8
  %100 = icmp ne ptr %99, null
  br i1 %100, label %101, label %102

101:                                              ; preds = %98
  store i1 false, ptr %5, align 1
  store i32 1, ptr %15, align 4
  br label %103

102:                                              ; preds = %98
  store i1 true, ptr %5, align 1
  store i32 1, ptr %15, align 4
  br label %103

103:                                              ; preds = %102, %101, %92
  call void @llvm.lifetime.end.p0(i64 8, ptr %12) #6
  call void @llvm.lifetime.end.p0(i64 4, ptr %11) #6
  call void @llvm.lifetime.end.p0(i64 4, ptr %10) #6
  %104 = load i1, ptr %5, align 1
  ret i1 %104
}

; Function Attrs: nounwind uwtable
define dso_local void @ExecConditionalAssignProjectionInfo(ptr noundef %0, ptr noundef %1, i32 noundef %2) #0 {
  %4 = alloca ptr, align 8
  %5 = alloca ptr, align 8
  %6 = alloca i32, align 4
  store ptr %0, ptr %4, align 8
  store ptr %1, ptr %5, align 8
  store i32 %2, ptr %6, align 4
  %7 = load ptr, ptr %4, align 8
  %8 = load ptr, ptr %4, align 8
  %9 = getelementptr inbounds nuw %struct.PlanState, ptr %8, i32 0, i32 1
  %10 = load ptr, ptr %9, align 8
  %11 = getelementptr inbounds nuw %struct.Plan, ptr %10, i32 0, i32 10
  %12 = load ptr, ptr %11, align 8
  %13 = load i32, ptr %6, align 4
  %14 = load ptr, ptr %5, align 8
  %15 = call zeroext i1 @tlist_matches_tupdesc(ptr noundef %7, ptr noundef %12, i32 noundef %13, ptr noundef %14)
  br i1 %15, label %16, label %38

16:                                               ; preds = %3
  %17 = load ptr, ptr %4, align 8
  %18 = getelementptr inbounds nuw %struct.PlanState, ptr %17, i32 0, i32 17
  store ptr null, ptr %18, align 8
  %19 = load ptr, ptr %4, align 8
  %20 = getelementptr inbounds nuw %struct.PlanState, ptr %19, i32 0, i32 28
  %21 = load i8, ptr %20, align 4, !range !6, !noundef !7
  %22 = trunc i8 %21 to i1
  %23 = load ptr, ptr %4, align 8
  %24 = getelementptr inbounds nuw %struct.PlanState, ptr %23, i32 0, i32 31
  %25 = zext i1 %22 to i8
  store i8 %25, ptr %24, align 1
  %26 = load ptr, ptr %4, align 8
  %27 = getelementptr inbounds nuw %struct.PlanState, ptr %26, i32 0, i32 24
  %28 = load i8, ptr %27, align 8, !range !6, !noundef !7
  %29 = trunc i8 %28 to i1
  %30 = load ptr, ptr %4, align 8
  %31 = getelementptr inbounds nuw %struct.PlanState, ptr %30, i32 0, i32 27
  %32 = zext i1 %29 to i8
  store i8 %32, ptr %31, align 1
  %33 = load ptr, ptr %4, align 8
  %34 = getelementptr inbounds nuw %struct.PlanState, ptr %33, i32 0, i32 20
  %35 = load ptr, ptr %34, align 8
  %36 = load ptr, ptr %4, align 8
  %37 = getelementptr inbounds nuw %struct.PlanState, ptr %36, i32 0, i32 23
  store ptr %35, ptr %37, align 8
  br label %54

38:                                               ; preds = %3
  %39 = load ptr, ptr %4, align 8
  %40 = getelementptr inbounds nuw %struct.PlanState, ptr %39, i32 0, i32 15
  %41 = load ptr, ptr %40, align 8
  %42 = icmp ne ptr %41, null
  br i1 %42, label %51, label %43

43:                                               ; preds = %38
  %44 = load ptr, ptr %4, align 8
  call void @ExecInitResultSlot(ptr noundef %44, ptr noundef @TTSOpsVirtual)
  %45 = load ptr, ptr %4, align 8
  %46 = getelementptr inbounds nuw %struct.PlanState, ptr %45, i32 0, i32 23
  store ptr @TTSOpsVirtual, ptr %46, align 8
  %47 = load ptr, ptr %4, align 8
  %48 = getelementptr inbounds nuw %struct.PlanState, ptr %47, i32 0, i32 27
  store i8 1, ptr %48, align 1
  %49 = load ptr, ptr %4, align 8
  %50 = getelementptr inbounds nuw %struct.PlanState, ptr %49, i32 0, i32 31
  store i8 1, ptr %50, align 1
  br label %51

51:                                               ; preds = %43, %38
  %52 = load ptr, ptr %4, align 8
  %53 = load ptr, ptr %5, align 8
  call void @ExecAssignProjectionInfo(ptr noundef %52, ptr noundef %53)
  br label %54

54:                                               ; preds = %51, %16
  ret void
}